; Function Attrs: mustprogress nofree norecurse nosync nounwind willreturn memory(argmem: readwrite) uwtable
define internal nonnull ptr @Pack3WordsSwap(ptr nocapture readnone %0, ptr nocapture noundef readonly %1, ptr noundef writeonly %2, i32 %3) #3 {
  %5 = getelementptr inbounds i8, ptr %1, i64 4
  %6 = load i16, ptr %5, align 2
  store i16 %6, ptr %2, align 2
  %7 = getelementptr inbounds i8, ptr %2, i64 2
  %8 = getelementptr inbounds i8, ptr %1, i64 2
  %9 = load i16, ptr %8, align 2
  store i16 %9, ptr %7, align 2
  %10 = getelementptr inbounds i8, ptr %2, i64 4
  %11 = load i16, ptr %1, align 2
  store i16 %11, ptr %10, align 2
  %12 = getelementptr inbounds i8, ptr %2, i64 6
  ret ptr %12
}